; Function Attrs: mustprogress nofree norecurse nosync nounwind willreturn memory(read, argmem: readwrite, inaccessiblemem: none) uwtable
define dso_local void @_ZNK17btConvexHullShape9getVertexEiR9btVector3(ptr noundef nonnull readonly align 8 captures(none) dereferenceable(152) %0, i32 noundef %1, ptr noundef nonnull writeonly align 4 captures(none) dereferenceable(16) initializes((0, 16)) %2) unnamed_addr #11 align 2 {
  %4 = getelementptr inbounds nuw i8, ptr %0, i64 136
  %5 = load ptr, ptr %4, align 8, !tbaa !15
  %6 = sext i32 %1 to i64
  %7 = getelementptr inbounds %class.btVector3, ptr %5, i64 %6
  %8 = getelementptr inbounds nuw i8, ptr %0, i64 32
  %9 = load float, ptr %7, align 4, !tbaa !26
  %10 = load float, ptr %8, align 8, !tbaa !26
  %11 = fmul float %9, %10
  %12 = getelementptr inbounds nuw i8, ptr %7, i64 4
  %13 = load float, ptr %12, align 4, !tbaa !26
  %14 = getelementptr inbounds nuw i8, ptr %0, i64 36
  %15 = load float, ptr %14, align 4, !tbaa !26
  %16 = fmul float %13, %15
  %17 = getelementptr inbounds nuw i8, ptr %7, i64 8
  %18 = load float, ptr %17, align 4, !tbaa !26
  %19 = getelementptr inbounds nuw i8, ptr %0, i64 40
  %20 = load float, ptr %19, align 8, !tbaa !26
  %21 = fmul float %18, %20
  %.sroa.0.0.vec.insert.i.i = insertelement <2 x float> poison, float %11, i64 0
  %.sroa.0.4.vec.insert.i.i = insertelement <2 x float> %.sroa.0.0.vec.insert.i.i, float %16, i64 1
  %.sroa.3.12.vec.insert.i.i = insertelement <2 x float> <float poison, float 0.000000e+00>, float %21, i64 0
  store <2 x float> %.sroa.0.4.vec.insert.i.i, ptr %2, align 4
  %.sroa.4.0..sroa_idx = getelementptr inbounds nuw i8, ptr %2, i64 8
  store <2 x float> %.sroa.3.12.vec.insert.i.i, ptr %.sroa.4.0..sroa_idx, align 4, !tbaa !21
  ret void
}